; Function Attrs: mustprogress nounwind uwtable
define dso_local void @_ZNK5clang10installapi17InstallAPIVisitor21getBackendMangledNameB5cxx11EN4llvm5TwineE(ptr dead_on_unwind noalias writable sret(%"class.std::__cxx11::basic_string") align 8 %0, ptr noundef nonnull readonly align 8 captures(none) dereferenceable(64) %1, ptr noundef byval(%"class.llvm::Twine") align 8 %2) local_unnamed_addr #0 align 2 {
  %4 = alloca %"class.std::allocator.130", align 1
  %5 = alloca %"class.llvm::SmallString", align 8
  %6 = alloca %"class.llvm::DataLayout", align 8
  %7 = getelementptr inbounds nuw i8, ptr %5, i64 24
  call void @_ZN4llvm15SmallVectorBaseImEC2EPvm(ptr noundef nonnull align 8 dereferenceable(280) %5, ptr noundef nonnull %7, i64 noundef 256) #16
  %8 = getelementptr inbounds nuw i8, ptr %1, i64 48
  %.sroa.0.0.copyload = load ptr, ptr %8, align 8
  %.sroa.2.0..sroa_idx = getelementptr inbounds nuw i8, ptr %1, i64 56
  %.sroa.2.0.copyload = load i64, ptr %.sroa.2.0..sroa_idx, align 8
  call void @_ZN4llvm10DataLayoutC1ENS_9StringRefE(ptr noundef nonnull align 8 dereferenceable(512) %6, ptr %.sroa.0.0.copyload, i64 %.sroa.2.0.copyload) #16
  call void @_ZN4llvm7Mangler17getNameWithPrefixERNS_15SmallVectorImplIcEERKNS_5TwineERKNS_10DataLayoutE(ptr noundef nonnull align 8 dereferenceable(24) %5, ptr noundef nonnull align 8 dereferenceable(34) %2, ptr noundef nonnull align 8 dereferenceable(512) %6) #16
  call void @_ZN4llvm10DataLayoutD1Ev(ptr noundef nonnull align 8 dereferenceable(512) %6) #16
  call void @llvm.lifetime.start.p0(i64 1, ptr nonnull %4)
  %9 = load ptr, ptr %5, align 8, !noalias !6
  %10 = call noundef i64 @_ZNK4llvm15SmallVectorBaseImE4sizeEv(ptr noundef nonnull align 8 dereferenceable(280) %5) #16, !noalias !6
  call void @_ZNSaIcEC1Ev(ptr noundef nonnull align 1 dereferenceable(1) %4) #16, !noalias !6
  call void @_ZNSt7__cxx1112basic_stringIcSt11char_traitsIcESaIcEEC1EPKcmRKS3_(ptr noundef nonnull align 8 dereferenceable(32) %0, ptr noundef %9, i64 noundef %10, ptr noundef nonnull align 1 dereferenceable(1) %4) #16
  call void @_ZNSaIcED1Ev(ptr noundef nonnull align 1 dereferenceable(1) %4) #16
  call void @llvm.lifetime.end.p0(i64 1, ptr nonnull %4)
  %11 = call noundef i64 @_ZNK4llvm15SmallVectorBaseImE4sizeEv(ptr noundef nonnull align 8 dereferenceable(280) %5) #16
  %12 = load ptr, ptr %5, align 8
  %13 = icmp eq ptr %12, %7
  br i1 %13, label %_ZN4llvm11SmallStringILj256EED2Ev.exit, label %14

14:                                               ; preds = %3
  call void @free(ptr noundef %12) #16
  br label %_ZN4llvm11SmallStringILj256EED2Ev.exit

_ZN4llvm11SmallStringILj256EED2Ev.exit:           ; preds = %3, %14
  ret void
}